target datalayout = "e-m:e-p270:32:32-p271:32:32-p272:64:64-i64:64-i128:128-f80:128-n8:16:32:64-S128"
target triple = "x86_64-pc-linux-gnu"

%struct.mbedtls_nist_kw_context = type { %struct.mbedtls_cipher_context_t }
%struct.mbedtls_cipher_context_t = type { ptr, i32, i32, ptr, ptr, [16 x i8], i64, [16 x i8], i64, ptr, ptr }

@NIST_KW_ICV1 = internal constant [8 x i8] c"\A6\A6\A6\A6\A6\A6\A6\A6", align 1
@NIST_KW_ICV2 = internal constant [4 x i8] c"\A6YY\A6", align 1

; Function Attrs: nounwind uwtable
define internal void @calc_a_xor_t(ptr noundef %0, i64 noundef %1) #0 {
  %3 = alloca ptr, align 8
  %4 = alloca i64, align 8
  %5 = alloca i64, align 8
  store ptr %0, ptr %3, align 8, !tbaa !9
  store i64 %1, ptr %4, align 8, !tbaa !13
  call void @llvm.lifetime.start.p0(i64 8, ptr %5) #9
  store i64 0, ptr %5, align 8, !tbaa !13
  store i64 0, ptr %5, align 8, !tbaa !13
  br label %6

6:                                                ; preds = %23, %2
  %7 = load i64, ptr %5, align 8, !tbaa !13
  %8 = icmp ult i64 %7, 8
  br i1 %8, label %9, label %26

9:                                                ; preds = %6
  %10 = load i64, ptr %4, align 8, !tbaa !13
  %11 = load i64, ptr %5, align 8, !tbaa !13
  %12 = sub i64 7, %11
  %13 = mul i64 %12, 8
  %14 = lshr i64 %10, %13
  %15 = and i64 %14, 255
  %16 = load ptr, ptr %3, align 8, !tbaa !9
  %17 = load i64, ptr %5, align 8, !tbaa !13
  %18 = getelementptr inbounds nuw i8, ptr %16, i64 %17
  %19 = load i8, ptr %18, align 1, !tbaa !19
  %20 = zext i8 %19 to i64
  %21 = xor i64 %20, %15
  %22 = trunc i64 %21 to i8
  store i8 %22, ptr %18, align 1, !tbaa !19
  br label %23

23:                                               ; preds = %9
  %24 = load i64, ptr %5, align 8, !tbaa !13
  %25 = add i64 %24, 1
  store i64 %25, ptr %5, align 8, !tbaa !13
  br label %6, !llvm.loop !20

26:                                               ; preds = %6
  call void @llvm.lifetime.end.p0(i64 8, ptr %5) #9
  ret void
}

; Function Attrs: alwaysinline nounwind uwtable
define internal void @mbedtls_put_unaligned_uint32(ptr noundef %0, i32 noundef %1) #6 {
  %3 = alloca ptr, align 8
  %4 = alloca i32, align 4
  store ptr %0, ptr %3, align 8, !tbaa !3
  store i32 %1, ptr %4, align 4, !tbaa !7
  %5 = load ptr, ptr %3, align 8, !tbaa !3
  call void @llvm.memcpy.p0.p0.i64(ptr align 1 %5, ptr align 4 %4, i64 4, i1 false)
  ret void
}

; Function Attrs: nounwind uwtable
define hidden i32 @mbedtls_nist_kw_wrap(ptr noundef %0, i32 noundef %1, ptr noundef %2, i64 noundef %3, ptr noundef %4, ptr noundef %5, i64 noundef %6) #0 {
  %8 = alloca i32, align 4
  %9 = alloca ptr, align 8
  %10 = alloca i32, align 4
  %11 = alloca ptr, align 8
  %12 = alloca i64, align 8
  %13 = alloca ptr, align 8
  %14 = alloca ptr, align 8
  %15 = alloca i64, align 8
  %16 = alloca i32, align 4
  %17 = alloca i64, align 8
  %18 = alloca i64, align 8
  %19 = alloca i64, align 8
  %20 = alloca i64, align 8
  %21 = alloca i64, align 8
  %22 = alloca [16 x i8], align 16
  %23 = alloca [16 x i8], align 16
  %24 = alloca i32, align 4
  %25 = alloca ptr, align 8
  %26 = alloca ptr, align 8
  store ptr %0, ptr %9, align 8, !tbaa !3
  store i32 %1, ptr %10, align 4, !tbaa !7
  store ptr %2, ptr %11, align 8, !tbaa !9
  store i64 %3, ptr %12, align 8, !tbaa !13
  store ptr %4, ptr %13, align 8, !tbaa !9
  store ptr %5, ptr %14, align 8, !tbaa !15
  store i64 %6, ptr %15, align 8, !tbaa !13
  call void @llvm.lifetime.start.p0(i64 4, ptr %16) #9
  store i32 0, ptr %16, align 4, !tbaa !7
  call void @llvm.lifetime.start.p0(i64 8, ptr %17) #9
  store i64 0, ptr %17, align 8, !tbaa !13
  call void @llvm.lifetime.start.p0(i64 8, ptr %18) #9
  call void @llvm.lifetime.start.p0(i64 8, ptr %19) #9
  call void @llvm.lifetime.start.p0(i64 8, ptr %20) #9
  store i64 0, ptr %20, align 8, !tbaa !13
  call void @llvm.lifetime.start.p0(i64 8, ptr %21) #9
  store i64 0, ptr %21, align 8, !tbaa !13
  call void @llvm.lifetime.start.p0(i64 16, ptr %22) #9
  call void @llvm.lifetime.start.p0(i64 16, ptr %23) #9
  %27 = load ptr, ptr %14, align 8, !tbaa !15
  store i64 0, ptr %27, align 8, !tbaa !13
  %28 = load i32, ptr %10, align 4, !tbaa !7
  %29 = icmp eq i32 %28, 0
  br i1 %29, label %30, label %53

30:                                               ; preds = %7
  %31 = load i64, ptr %15, align 8, !tbaa !13
  %32 = load i64, ptr %12, align 8, !tbaa !13
  %33 = add i64 %32, 8
  %34 = icmp ult i64 %31, %33
  br i1 %34, label %35, label %36

35:                                               ; preds = %30
  store i32 -24832, ptr %8, align 4
  store i32 1, ptr %24, align 4
  br label %187

36:                                               ; preds = %30
  %37 = load i64, ptr %12, align 8, !tbaa !13
  %38 = icmp ult i64 %37, 16
  br i1 %38, label %46, label %39

39:                                               ; preds = %36
  %40 = load i64, ptr %12, align 8, !tbaa !13
  %41 = icmp ugt i64 %40, 144115188075855864
  br i1 %41, label %46, label %42

42:                                               ; preds = %39
  %43 = load i64, ptr %12, align 8, !tbaa !13
  %44 = urem i64 %43, 8
  %45 = icmp ne i64 %44, 0
  br i1 %45, label %46, label %47

46:                                               ; preds = %42, %39, %36
  store i32 -24832, ptr %8, align 4
  store i32 1, ptr %24, align 4
  br label %187

47:                                               ; preds = %42
  %48 = load ptr, ptr %13, align 8, !tbaa !9
  call void @llvm.memcpy.p0.p0.i64(ptr align 1 %48, ptr align 1 @NIST_KW_ICV1, i64 8, i1 false)
  %49 = load ptr, ptr %13, align 8, !tbaa !9
  %50 = getelementptr inbounds i8, ptr %49, i64 8
  %51 = load ptr, ptr %11, align 8, !tbaa !9
  %52 = load i64, ptr %12, align 8, !tbaa !13
  call void @llvm.memmove.p0.p0.i64(ptr align 1 %50, ptr align 1 %51, i64 %52, i1 false)
  br label %93

53:                                               ; preds = %7
  %54 = load i64, ptr %12, align 8, !tbaa !13
  %55 = urem i64 %54, 8
  %56 = icmp ne i64 %55, 0
  br i1 %56, label %57, label %61

57:                                               ; preds = %53
  %58 = load i64, ptr %12, align 8, !tbaa !13
  %59 = urem i64 %58, 8
  %60 = sub i64 8, %59
  store i64 %60, ptr %20, align 8, !tbaa !13
  br label %61

61:                                               ; preds = %57, %53
  %62 = load i64, ptr %15, align 8, !tbaa !13
  %63 = load i64, ptr %12, align 8, !tbaa !13
  %64 = add i64 %63, 8
  %65 = load i64, ptr %20, align 8, !tbaa !13
  %66 = add i64 %64, %65
  %67 = icmp ult i64 %62, %66
  br i1 %67, label %68, label %69

68:                                               ; preds = %61
  store i32 -24832, ptr %8, align 4
  store i32 1, ptr %24, align 4
  br label %187

69:                                               ; preds = %61
  %70 = load i64, ptr %12, align 8, !tbaa !13
  %71 = icmp ult i64 %70, 1
  br i1 %71, label %75, label %72

72:                                               ; preds = %69
  %73 = load i64, ptr %12, align 8, !tbaa !13
  %74 = icmp ugt i64 %73, 4294967295
  br i1 %74, label %75, label %76

75:                                               ; preds = %72, %69
  store i32 -24832, ptr %8, align 4
  store i32 1, ptr %24, align 4
  br label %187

76:                                               ; preds = %72
  %77 = load ptr, ptr %13, align 8, !tbaa !9
  call void @llvm.memcpy.p0.p0.i64(ptr align 1 %77, ptr align 1 @NIST_KW_ICV2, i64 4, i1 false)
  %78 = load ptr, ptr %13, align 8, !tbaa !9
  %79 = getelementptr inbounds i8, ptr %78, i64 4
  %80 = load i64, ptr %12, align 8, !tbaa !13
  %81 = and i64 %80, 4294967295
  %82 = trunc i64 %81 to i32
  %83 = call i32 @llvm.bswap.i32(i32 %82)
  call void @mbedtls_put_unaligned_uint32(ptr noundef %79, i32 noundef %83)
  %84 = load ptr, ptr %13, align 8, !tbaa !9
  %85 = getelementptr inbounds i8, ptr %84, i64 8
  %86 = load ptr, ptr %11, align 8, !tbaa !9
  %87 = load i64, ptr %12, align 8, !tbaa !13
  call void @llvm.memcpy.p0.p0.i64(ptr align 1 %85, ptr align 1 %86, i64 %87, i1 false)
  %88 = load ptr, ptr %13, align 8, !tbaa !9
  %89 = getelementptr inbounds i8, ptr %88, i64 8
  %90 = load i64, ptr %12, align 8, !tbaa !13
  %91 = getelementptr inbounds nuw i8, ptr %89, i64 %90
  %92 = load i64, ptr %20, align 8, !tbaa !13
  call void @llvm.memset.p0.i64(ptr align 1 %91, i8 0, i64 %92, i1 false)
  br label %93

93:                                               ; preds = %76, %47
  %94 = load i64, ptr %12, align 8, !tbaa !13
  %95 = load i64, ptr %20, align 8, !tbaa !13
  %96 = add i64 %94, %95
  %97 = udiv i64 %96, 8
  %98 = add i64 %97, 1
  store i64 %98, ptr %17, align 8, !tbaa !13
  %99 = load i64, ptr %17, align 8, !tbaa !13
  %100 = sub i64 %99, 1
  %101 = mul i64 6, %100
  store i64 %101, ptr %18, align 8, !tbaa !13
  %102 = load i32, ptr %10, align 4, !tbaa !7
  %103 = icmp eq i32 %102, 1
  br i1 %103, label %104, label %119

104:                                              ; preds = %93
  %105 = load i64, ptr %12, align 8, !tbaa !13
  %106 = icmp ule i64 %105, 8
  br i1 %106, label %107, label %119

107:                                              ; preds = %104
  %108 = getelementptr inbounds [16 x i8], ptr %23, i64 0, i64 0
  %109 = load ptr, ptr %13, align 8, !tbaa !9
  call void @llvm.memcpy.p0.p0.i64(ptr align 16 %108, ptr align 1 %109, i64 16, i1 false)
  %110 = load ptr, ptr %9, align 8, !tbaa !3
  %111 = getelementptr inbounds nuw %struct.mbedtls_nist_kw_context, ptr %110, i32 0, i32 0
  %112 = getelementptr inbounds [16 x i8], ptr %23, i64 0, i64 0
  %113 = load ptr, ptr %13, align 8, !tbaa !9
  %114 = call i32 @mbedtls_cipher_update(ptr noundef %111, ptr noundef %112, i64 noundef 16, ptr noundef %113, ptr noundef %19)
  store i32 %114, ptr %16, align 4, !tbaa !7
  %115 = load i32, ptr %16, align 4, !tbaa !7
  %116 = icmp ne i32 %115, 0
  br i1 %116, label %117, label %118

117:                                              ; preds = %107
  br label %176

118:                                              ; preds = %107
  br label %172

119:                                              ; preds = %104, %93
  call void @llvm.lifetime.start.p0(i64 8, ptr %25) #9
  %120 = load ptr, ptr %13, align 8, !tbaa !9
  %121 = getelementptr inbounds i8, ptr %120, i64 8
  store ptr %121, ptr %25, align 8, !tbaa !9
  call void @llvm.lifetime.start.p0(i64 8, ptr %26) #9
  %122 = load ptr, ptr %13, align 8, !tbaa !9
  store ptr %122, ptr %26, align 8, !tbaa !9
  %123 = load i64, ptr %17, align 8, !tbaa !13
  %124 = icmp ult i64 %123, 3
  br i1 %124, label %125, label %126

125:                                              ; preds = %119
  store i32 -24832, ptr %16, align 4, !tbaa !7
  store i32 2, ptr %24, align 4
  br label %169

126:                                              ; preds = %119
  store i64 1, ptr %21, align 8, !tbaa !13
  br label %127

127:                                              ; preds = %165, %126
  %128 = load i64, ptr %21, align 8, !tbaa !13
  %129 = load i64, ptr %18, align 8, !tbaa !13
  %130 = icmp ule i64 %128, %129
  br i1 %130, label %131, label %168

131:                                              ; preds = %127
  %132 = getelementptr inbounds [16 x i8], ptr %23, i64 0, i64 0
  %133 = load ptr, ptr %26, align 8, !tbaa !9
  call void @llvm.memcpy.p0.p0.i64(ptr align 16 %132, ptr align 1 %133, i64 8, i1 false)
  %134 = getelementptr inbounds [16 x i8], ptr %23, i64 0, i64 0
  %135 = getelementptr inbounds i8, ptr %134, i64 8
  %136 = load ptr, ptr %25, align 8, !tbaa !9
  call void @llvm.memcpy.p0.p0.i64(ptr align 1 %135, ptr align 1 %136, i64 8, i1 false)
  %137 = load ptr, ptr %9, align 8, !tbaa !3
  %138 = getelementptr inbounds nuw %struct.mbedtls_nist_kw_context, ptr %137, i32 0, i32 0
  %139 = getelementptr inbounds [16 x i8], ptr %23, i64 0, i64 0
  %140 = getelementptr inbounds [16 x i8], ptr %22, i64 0, i64 0
  %141 = call i32 @mbedtls_cipher_update(ptr noundef %138, ptr noundef %139, i64 noundef 16, ptr noundef %140, ptr noundef %19)
  store i32 %141, ptr %16, align 4, !tbaa !7
  %142 = load i32, ptr %16, align 4, !tbaa !7
  %143 = icmp ne i32 %142, 0
  br i1 %143, label %144, label %145

144:                                              ; preds = %131
  store i32 2, ptr %24, align 4
  br label %169

145:                                              ; preds = %131
  %146 = load ptr, ptr %26, align 8, !tbaa !9
  %147 = getelementptr inbounds [16 x i8], ptr %22, i64 0, i64 0
  call void @llvm.memcpy.p0.p0.i64(ptr align 1 %146, ptr align 16 %147, i64 8, i1 false)
  %148 = load ptr, ptr %26, align 8, !tbaa !9
  %149 = load i64, ptr %21, align 8, !tbaa !13
  call void @calc_a_xor_t(ptr noundef %148, i64 noundef %149)
  %150 = load ptr, ptr %25, align 8, !tbaa !9
  %151 = getelementptr inbounds [16 x i8], ptr %22, i64 0, i64 0
  %152 = getelementptr inbounds i8, ptr %151, i64 8
  call void @llvm.memcpy.p0.p0.i64(ptr align 1 %150, ptr align 1 %152, i64 8, i1 false)
  %153 = load ptr, ptr %25, align 8, !tbaa !9
  %154 = getelementptr inbounds i8, ptr %153, i64 8
  store ptr %154, ptr %25, align 8, !tbaa !9
  %155 = load ptr, ptr %25, align 8, !tbaa !9
  %156 = load ptr, ptr %13, align 8, !tbaa !9
  %157 = load i64, ptr %17, align 8, !tbaa !13
  %158 = mul i64 %157, 8
  %159 = getelementptr inbounds nuw i8, ptr %156, i64 %158
  %160 = icmp uge ptr %155, %159
  br i1 %160, label %161, label %164

161:                                              ; preds = %145
  %162 = load ptr, ptr %13, align 8, !tbaa !9
  %163 = getelementptr inbounds i8, ptr %162, i64 8
  store ptr %163, ptr %25, align 8, !tbaa !9
  br label %164

164:                                              ; preds = %161, %145
  br label %165

165:                                              ; preds = %164
  %166 = load i64, ptr %21, align 8, !tbaa !13
  %167 = add i64 %166, 1
  store i64 %167, ptr %21, align 8, !tbaa !13
  br label %127, !llvm.loop !17

168:                                              ; preds = %127
  store i32 0, ptr %24, align 4
  br label %169

169:                                              ; preds = %144, %125, %168
  call void @llvm.lifetime.end.p0(i64 8, ptr %26) #9
  call void @llvm.lifetime.end.p0(i64 8, ptr %25) #9
  %170 = load i32, ptr %24, align 4
  switch i32 %170, label %187 [
    i32 0, label %171
    i32 2, label %176
  ]

171:                                              ; preds = %169
  br label %172

172:                                              ; preds = %171, %118
  %173 = load i64, ptr %17, align 8, !tbaa !13
  %174 = mul i64 %173, 8
  %175 = load ptr, ptr %14, align 8, !tbaa !15
  store i64 %174, ptr %175, align 8, !tbaa !13
  br label %176

176:                                              ; preds = %172, %169, %117
  %177 = load i32, ptr %16, align 4, !tbaa !7
  %178 = icmp ne i32 %177, 0
  br i1 %178, label %179, label %183

179:                                              ; preds = %176
  %180 = load ptr, ptr %13, align 8, !tbaa !9
  %181 = load i64, ptr %17, align 8, !tbaa !13
  %182 = mul i64 %181, 8
  call void @llvm.memset.p0.i64(ptr align 1 %180, i8 0, i64 %182, i1 false)
  br label %183

183:                                              ; preds = %179, %176
  %184 = getelementptr inbounds [16 x i8], ptr %23, i64 0, i64 0
  call void @mbedtls_platform_zeroize(ptr noundef %184, i64 noundef 16)
  %185 = getelementptr inbounds [16 x i8], ptr %22, i64 0, i64 0
  call void @mbedtls_platform_zeroize(ptr noundef %185, i64 noundef 16)
  %186 = load i32, ptr %16, align 4, !tbaa !7
  store i32 %186, ptr %8, align 4
  store i32 1, ptr %24, align 4
  br label %187

187:                                              ; preds = %183, %169, %75, %68, %46, %35
  call void @llvm.lifetime.end.p0(i64 16, ptr %23) #9
  call void @llvm.lifetime.end.p0(i64 16, ptr %22) #9
  call void @llvm.lifetime.end.p0(i64 8, ptr %21) #9
  call void @llvm.lifetime.end.p0(i64 8, ptr %20) #9
  call void @llvm.lifetime.end.p0(i64 8, ptr %19) #9
  call void @llvm.lifetime.end.p0(i64 8, ptr %18) #9
  call void @llvm.lifetime.end.p0(i64 8, ptr %17) #9
  call void @llvm.lifetime.end.p0(i64 4, ptr %16) #9
  %188 = load i32, ptr %8, align 4
  ret i32 %188
}