; Function Attrs: nounwind uwtable
define hidden i32 @mbedtls_nist_kw_wrap(ptr noundef %0, i32 noundef %1, ptr noundef readonly captures(none) %2, i64 noundef %3, ptr noundef %4, ptr noundef writeonly captures(none) initializes((0, 8)) %5, i64 noundef %6) local_unnamed_addr #2 {
  %8 = alloca i64, align 8
  %9 = alloca [16 x i8], align 16
  %10 = alloca [16 x i8], align 16
  call void @llvm.lifetime.start.p0(i64 8, ptr nonnull %8) #11
  call void @llvm.lifetime.start.p0(i64 16, ptr nonnull %9) #11
  call void @llvm.lifetime.start.p0(i64 16, ptr nonnull %10) #11
  store i64 0, ptr %5, align 8, !tbaa !3
  %11 = icmp eq i32 %1, 0
  br i1 %11, label %12, label %20

12:                                               ; preds = %7
  %13 = add i64 %3, 8
  %14 = icmp ult i64 %6, %13
  br i1 %14, label %70, label %15

15:                                               ; preds = %12
  %16 = add i64 %3, -16
  %or.cond = icmp ult i64 %16, 144115188075855849
  %17 = and i64 %3, 7
  %.not83 = icmp eq i64 %17, 0
  %or.cond89 = and i1 %or.cond, %.not83
  br i1 %or.cond89, label %18, label %70

18:                                               ; preds = %15
  store i64 -6438275382588823898, ptr %4, align 1
  %19 = getelementptr inbounds nuw i8, ptr %4, i64 8
  tail call void @llvm.memmove.p0.p0.i64(ptr nonnull align 1 %19, ptr align 1 %2, i64 %3, i1 false)
  br label %33

20:                                               ; preds = %7
  %21 = and i64 %3, 7
  %.not = icmp eq i64 %21, 0
  %22 = sub nuw nsw i64 8, %21
  %spec.select = select i1 %.not, i64 0, i64 %22
  %23 = add i64 %3, 8
  %24 = add i64 %23, %spec.select
  %25 = icmp ult i64 %6, %24
  %26 = add i64 %3, -4294967296
  %or.cond3 = icmp ult i64 %26, -4294967295
  %or.cond92 = or i1 %or.cond3, %25
  br i1 %or.cond92, label %70, label %27

27:                                               ; preds = %20
  store i32 -1504093786, ptr %4, align 1
  %28 = getelementptr inbounds nuw i8, ptr %4, i64 4
  %29 = trunc nuw i64 %3 to i32
  %30 = tail call i32 @llvm.bswap.i32(i32 %29)
  store i32 %30, ptr %28, align 1
  %31 = getelementptr inbounds nuw i8, ptr %4, i64 8
  tail call void @llvm.memcpy.p0.p0.i64(ptr nonnull align 1 %31, ptr align 1 %2, i64 %3, i1 false)
  %32 = getelementptr inbounds nuw i8, ptr %31, i64 %3
  tail call void @llvm.memset.p0.i64(ptr nonnull align 1 %32, i8 0, i64 %spec.select, i1 false)
  br label %33

33:                                               ; preds = %27, %18
  %.070 = phi i64 [ 0, %18 ], [ %spec.select, %27 ]
  %34 = add nuw nsw i64 %.070, %3
  %35 = lshr i64 %34, 3
  %36 = add nuw nsw i64 %35, 1
  %37 = mul nuw nsw i64 %35, 6
  %38 = icmp eq i32 %1, 1
  %39 = icmp samesign ult i64 %3, 9
  %or.cond5 = and i1 %38, %39
  br i1 %or.cond5, label %40, label %42

40:                                               ; preds = %33
  call void @llvm.memcpy.p0.p0.i64(ptr noundef nonnull align 16 dereferenceable(16) %10, ptr noundef nonnull align 1 dereferenceable(16) %4, i64 16, i1 false)
  %41 = call i32 @mbedtls_cipher_update(ptr noundef %0, ptr noundef nonnull %10, i64 noundef 16, ptr noundef nonnull %4, ptr noundef nonnull %8) #11
  %.not87 = icmp eq i32 %41, 0
  br i1 %.not87, label %.loopexit, label %.thread

42:                                               ; preds = %33
  %43 = getelementptr inbounds nuw i8, ptr %4, i64 8
  %44 = icmp samesign ult i64 %34, 16
  br i1 %44, label %.thread, label %.lr.ph

.lr.ph:                                           ; preds = %42
  %45 = getelementptr inbounds nuw i8, ptr %10, i64 8
  %46 = getelementptr inbounds nuw i8, ptr %9, i64 8
  %47 = shl nuw nsw i64 %36, 3
  %48 = getelementptr inbounds nuw i8, ptr %4, i64 %47
  %umax = tail call i64 @llvm.umax.i64(i64 %37, i64 1)
  br label %49

49:                                               ; preds = %.lr.ph, %calc_a_xor_t.exit
  %.067104 = phi ptr [ %43, %.lr.ph ], [ %spec.select90, %calc_a_xor_t.exit ]
  %.069103 = phi i64 [ 1, %.lr.ph ], [ %66, %calc_a_xor_t.exit ]
  %50 = load i64, ptr %4, align 1
  store i64 %50, ptr %10, align 16
  %51 = load i64, ptr %.067104, align 1
  store i64 %51, ptr %45, align 8
  %52 = call i32 @mbedtls_cipher_update(ptr noundef %0, ptr noundef nonnull %10, i64 noundef 16, ptr noundef nonnull %9, ptr noundef nonnull %8) #11
  %.not85 = icmp eq i32 %52, 0
  br i1 %.not85, label %53, label %.thread

53:                                               ; preds = %49
  %54 = load i64, ptr %9, align 16
  store i64 %54, ptr %4, align 1
  br label %55

55:                                               ; preds = %55, %53
  %.05.i = phi i64 [ 0, %53 ], [ %63, %55 ]
  %56 = shl nuw nsw i64 %.05.i, 3
  %57 = sub nuw nsw i64 56, %56
  %58 = lshr i64 %.069103, %57
  %59 = getelementptr inbounds nuw i8, ptr %4, i64 %.05.i
  %60 = load i8, ptr %59, align 1, !tbaa !7
  %61 = trunc i64 %58 to i8
  %62 = xor i8 %60, %61
  store i8 %62, ptr %59, align 1, !tbaa !7
  %63 = add nuw nsw i64 %.05.i, 1
  %exitcond.not.i = icmp eq i64 %63, 8
  br i1 %exitcond.not.i, label %calc_a_xor_t.exit, label %55, !llvm.loop !8

calc_a_xor_t.exit:                                ; preds = %55
  %64 = load i64, ptr %46, align 8
  store i64 %64, ptr %.067104, align 1
  %65 = getelementptr inbounds nuw i8, ptr %.067104, i64 8
  %.not86 = icmp ult ptr %65, %48
  %spec.select90 = select i1 %.not86, ptr %65, ptr %43
  %66 = add nuw i64 %.069103, 1
  %exitcond.not = icmp eq i64 %.069103, %umax
  br i1 %exitcond.not, label %.loopexit, label %49, !llvm.loop !10

.loopexit:                                        ; preds = %calc_a_xor_t.exit, %40
  %67 = shl i64 %36, 3
  store i64 %67, ptr %5, align 8, !tbaa !3
  br label %69

.thread:                                          ; preds = %49, %42, %40
  %.072.ph = phi i32 [ %41, %40 ], [ -24832, %42 ], [ %52, %49 ]
  %68 = shl i64 %36, 3
  call void @llvm.memset.p0.i64(ptr nonnull align 1 %4, i8 0, i64 %68, i1 false)
  br label %69

69:                                               ; preds = %.loopexit, %.thread
  %.072101 = phi i32 [ %.072.ph, %.thread ], [ 0, %.loopexit ]
  call void @mbedtls_platform_zeroize(ptr noundef nonnull %10, i64 noundef 16) #11
  call void @mbedtls_platform_zeroize(ptr noundef nonnull %9, i64 noundef 16) #11
  br label %70

70:                                               ; preds = %20, %15, %12, %69
  %.0 = phi i32 [ %.072101, %69 ], [ -24832, %12 ], [ -24832, %15 ], [ -24832, %20 ]
  call void @llvm.lifetime.end.p0(i64 16, ptr nonnull %10) #11
  call void @llvm.lifetime.end.p0(i64 16, ptr nonnull %9) #11
  call void @llvm.lifetime.end.p0(i64 8, ptr nonnull %8) #11
  ret i32 %.0
}